(lp0
(dp1
Vdomain
p2
Vwww.instagram.com
p3
sVsecure
p4
I00
sVvalue
p5
VWj44LgALAAFuyr1QR63QuwMZ4bwj
p6
sVexpiry
p7
F2144747054.467256
sVpath
p8
V/
p9
sVhttpOnly
p10
I00
sVname
p11
Vmid
p12
sa(dp13
Vdomain
p14
Vwww.instagram.com
p15
sVsecure
p16
I01
sVvalue
p17
V2EOvrOfRd8KDgxiYeHYYJ4sukfpuJpwr
p18
sVexpiry
p19
F1545476678.737474
sVpath
p20
g9
sVhttpOnly
p21
I00
sVname
p22
Vcsrftoken
p23
sa(dp24
Vdomain
p25
Vwww.instagram.com
p26
sVname
p27
Vig_vw
p28
sVvalue
p29
V1034
p30
sVpath
p31
g9
sVhttpOnly
p32
I00
sVsecure
p33
I00
sa(dp34
Vdomain
p35
Vwww.instagram.com
p36
sVname
p37
Vig_vh
p38
sVvalue
p39
V576
p40
sVpath
p41
g9
sVhttpOnly
p42
I00
sVsecure
p43
I00
sa(dp44
Vdomain
p45
Vwww.instagram.com
p46
sVname
p47
Vurlgen
p48
sVvalue
p49
V"{\u005c"time\u005c": 1514027074}:1eShba:t1ahTY6fOz3U6wxbG8uQrDLQHAI"
p50
sVpath
p51
g9
sVhttpOnly
p52
I00
sVsecure
p53
I00
sa(dp54
Vdomain
p55
Vwww.instagram.com
p56
sVname
p57
Vig_pr
p58
sVvalue
p59
V1
p60
sVpath
p61
g9
sVhttpOnly
p62
I00
sVsecure
p63
I00
sa(dp64
Vdomain
p65
Vwww.instagram.com
p66
sVname
p67
Vig_or
p68
sVvalue
p69
Vlandscape-primary
p70
sVpath
p71
g9
sVhttpOnly
p72
I00
sVsecure
p73
I00
sa(dp74
Vdomain
p75
Vwww.instagram.com
p76
sVsecure
p77
I01
sVvalue
p78
VIGSC7dbbb0d8bee2f6a4ba65dfed8639a67ca56398b681760745462a4cac9d3e84ba%3ALIzG62yZBbrX98Ixvkhb2XmsmhdIbunh%3A%7B%22_auth_user_id%22%3A2233353771%2C%22_auth_user_backend%22%3A%22accounts.backends.CaseInsensitiveModelBackend%22%2C%22_auth_user_hash%22%3A%22%22%2C%22_platform%22%3A4%2C%22_token_ver%22%3A2%2C%22_token%22%3A%222233353771%3A73bhYxIC8AE3WkJ8hqAkbdsVEgWQLSNm%3A2fbd03b32b7cd989f644ec26ab2e450cb5057c4bc7447c6b0b6a68e9304af515%22%2C%22last_refreshed%22%3A1514027073.3677024841%7D
p79
sVexpiry
p80
F1521803073.545297
sVpath
p81
g9
sVhttpOnly
p82
I01
sVname
p83
Vsessionid
p84
sa(dp85
Vdomain
p86
Vwww.instagram.com
p87
sVsecure
p88
I00
sVvalue
p89
V2233353771
p90
sVexpiry
p91
F1521803078.737653
sVpath
p92
g9
sVhttpOnly
p93
I00
sVname
p94
Vds_user_id
p95
sa(dp96
Vdomain
p97
Vwww.instagram.com
p98
sVname
p99
Vrur
p100
sVvalue
p101
VPRN
p102
sVpath
p103
g9
sVhttpOnly
p104
I00
sVsecure
p105
I00
sa.